target datalayout = "e-m:e-p270:32:32-p271:32:32-p272:64:64-i64:64-i128:128-f80:128-n8:16:32:64-S128"
target triple = "x86_64-pc-linux-gnu"

%class.NavMeshTesterTool = type { %struct.SampleTool, ptr, ptr, ptr, %class.dtQueryFilter, i32, i32, i32, i32, i32, [256 x i32], [256 x i32], i32, [768 x float], [256 x i8], [256 x i32], i32, [3 x float], [6144 x float], i32, [12 x float], [192 x float], i32, i8, [3 x float], [3 x float], [3 x float], [3 x float], i8, float, float, float, i8, i8, i32, [256 x i32], i32, [3 x float], [3 x float], [3 x float], [3 x float], [30 x float], i32 }
%struct.SampleTool = type { ptr }
%class.dtQueryFilter = type { [64 x float], i16, i16 }

@.str.29 = private unnamed_addr constant [6 x i8] c"Start\00", align 1
@.str.30 = private unnamed_addr constant [4 x i8] c"End\00", align 1
@.str.31 = private unnamed_addr constant [53 x i8] c"LMB+SHIFT: Set start location  LMB: Set end location\00", align 1

; Function Attrs: mustprogress nounwind uwtable
define linkonce_odr dso_local noundef i32 @_Z9imguiRGBAhhhh(i8 noundef zeroext %0, i8 noundef zeroext %1, i8 noundef zeroext %2, i8 noundef zeroext %3) #1 comdat {
  %5 = alloca i8, align 1
  %6 = alloca i8, align 1
  %7 = alloca i8, align 1
  %8 = alloca i8, align 1
  store i8 %0, ptr %5, align 1
  store i8 %1, ptr %6, align 1
  store i8 %2, ptr %7, align 1
  store i8 %3, ptr %8, align 1
  %9 = load i8, ptr %5, align 1
  %10 = zext i8 %9 to i32
  %11 = load i8, ptr %6, align 1
  %12 = zext i8 %11 to i32
  %13 = shl i32 %12, 8
  %14 = or i32 %10, %13
  %15 = load i8, ptr %7, align 1
  %16 = zext i8 %15 to i32
  %17 = shl i32 %16, 16
  %18 = or i32 %14, %17
  %19 = load i8, ptr %8, align 1
  %20 = zext i8 %19 to i32
  %21 = shl i32 %20, 24
  %22 = or i32 %18, %21
  ret i32 %22
}

; Function Attrs: mustprogress uwtable
define dso_local void @_ZN17NavMeshTesterTool19handleRenderOverlayEPdS0_Pi(ptr noundef nonnull align 8 dereferenceable(33408) %0, ptr noundef %1, ptr noundef %2, ptr noundef %3) unnamed_addr #0 align 2 {
  %5 = alloca ptr, align 8
  %6 = alloca ptr, align 8
  %7 = alloca ptr, align 8
  %8 = alloca ptr, align 8
  %9 = alloca double, align 8
  %10 = alloca double, align 8
  %11 = alloca double, align 8
  %12 = alloca i32, align 4
  store ptr %0, ptr %5, align 8
  store ptr %1, ptr %6, align 8
  store ptr %2, ptr %7, align 8
  store ptr %3, ptr %8, align 8
  %13 = load ptr, ptr %5, align 8
  %14 = getelementptr inbounds %class.NavMeshTesterTool, ptr %13, i32 0, i32 32
  %15 = load i8, ptr %14, align 8
  %16 = trunc i8 %15 to i1
  br i1 %16, label %17, label %42

17:                                               ; preds = %4
  %18 = getelementptr inbounds %class.NavMeshTesterTool, ptr %13, i32 0, i32 24
  %19 = getelementptr inbounds [3 x float], ptr %18, i64 0, i64 0
  %20 = load float, ptr %19, align 8
  %21 = fpext float %20 to double
  %22 = getelementptr inbounds %class.NavMeshTesterTool, ptr %13, i32 0, i32 24
  %23 = getelementptr inbounds [3 x float], ptr %22, i64 0, i64 1
  %24 = load float, ptr %23, align 4
  %25 = fpext float %24 to double
  %26 = getelementptr inbounds %class.NavMeshTesterTool, ptr %13, i32 0, i32 24
  %27 = getelementptr inbounds [3 x float], ptr %26, i64 0, i64 2
  %28 = load float, ptr %27, align 8
  %29 = fpext float %28 to double
  %30 = load ptr, ptr %7, align 8
  %31 = load ptr, ptr %6, align 8
  %32 = load ptr, ptr %8, align 8
  %33 = call i32 @gluProject(double noundef %21, double noundef %25, double noundef %29, ptr noundef %30, ptr noundef %31, ptr noundef %32, ptr noundef %9, ptr noundef %10, ptr noundef %11)
  %34 = icmp ne i32 %33, 0
  br i1 %34, label %35, label %42

35:                                               ; preds = %17
  %36 = load double, ptr %9, align 8
  %37 = fptosi double %36 to i32
  %38 = load double, ptr %10, align 8
  %39 = fsub double %38, 2.500000e+01
  %40 = fptosi double %39 to i32
  %41 = call noundef i32 @_Z9imguiRGBAhhhh(i8 noundef zeroext 0, i8 noundef zeroext 0, i8 noundef zeroext 0, i8 noundef zeroext -36)
  call void @_Z13imguiDrawTextiiiPKcj(i32 noundef %37, i32 noundef %40, i32 noundef 1, ptr noundef @.str.29, i32 noundef %41)
  br label %42

42:                                               ; preds = %35, %17, %4
  %43 = getelementptr inbounds %class.NavMeshTesterTool, ptr %13, i32 0, i32 33
  %44 = load i8, ptr %43, align 1
  %45 = trunc i8 %44 to i1
  br i1 %45, label %46, label %71

46:                                               ; preds = %42
  %47 = getelementptr inbounds %class.NavMeshTesterTool, ptr %13, i32 0, i32 25
  %48 = getelementptr inbounds [3 x float], ptr %47, i64 0, i64 0
  %49 = load float, ptr %48, align 4
  %50 = fpext float %49 to double
  %51 = getelementptr inbounds %class.NavMeshTesterTool, ptr %13, i32 0, i32 25
  %52 = getelementptr inbounds [3 x float], ptr %51, i64 0, i64 1
  %53 = load float, ptr %52, align 4
  %54 = fpext float %53 to double
  %55 = getelementptr inbounds %class.NavMeshTesterTool, ptr %13, i32 0, i32 25
  %56 = getelementptr inbounds [3 x float], ptr %55, i64 0, i64 2
  %57 = load float, ptr %56, align 4
  %58 = fpext float %57 to double
  %59 = load ptr, ptr %7, align 8
  %60 = load ptr, ptr %6, align 8
  %61 = load ptr, ptr %8, align 8
  %62 = call i32 @gluProject(double noundef %50, double noundef %54, double noundef %58, ptr noundef %59, ptr noundef %60, ptr noundef %61, ptr noundef %9, ptr noundef %10, ptr noundef %11)
  %63 = icmp ne i32 %62, 0
  br i1 %63, label %64, label %71

64:                                               ; preds = %46
  %65 = load double, ptr %9, align 8
  %66 = fptosi double %65 to i32
  %67 = load double, ptr %10, align 8
  %68 = fsub double %67, 2.500000e+01
  %69 = fptosi double %68 to i32
  %70 = call noundef i32 @_Z9imguiRGBAhhhh(i8 noundef zeroext 0, i8 noundef zeroext 0, i8 noundef zeroext 0, i8 noundef zeroext -36)
  call void @_Z13imguiDrawTextiiiPKcj(i32 noundef %66, i32 noundef %69, i32 noundef 1, ptr noundef @.str.30, i32 noundef %70)
  br label %71

71:                                               ; preds = %64, %46, %42
  %72 = load ptr, ptr %8, align 8
  %73 = getelementptr inbounds i32, ptr %72, i64 3
  %74 = load i32, ptr %73, align 4
  store i32 %74, ptr %12, align 4
  %75 = load i32, ptr %12, align 4
  %76 = sub nsw i32 %75, 40
  %77 = call noundef i32 @_Z9imguiRGBAhhhh(i8 noundef zeroext -1, i8 noundef zeroext -1, i8 noundef zeroext -1, i8 noundef zeroext -64)
  call void @_Z13imguiDrawTextiiiPKcj(i32 noundef 280, i32 noundef %76, i32 noundef 0, ptr noundef @.str.31, i32 noundef %77)
  ret void
}