; Function Attrs: mustprogress uwtable
define dso_local void @_ZN17NavMeshTesterTool19handleRenderOverlayEPdS0_Pi(ptr nocapture noundef nonnull readonly align 8 dereferenceable(33408) %0, ptr noundef %1, ptr noundef %2, ptr noundef %3) unnamed_addr #0 align 2 {
  %5 = alloca double, align 8
  %6 = alloca double, align 8
  %7 = alloca double, align 8
  %8 = getelementptr inbounds i8, ptr %0, i64 32200
  %9 = load i8, ptr %8, align 8
  %10 = and i8 %9, 1
  %.not = icmp eq i8 %10, 0
  br i1 %.not, label %28, label %11

11:                                               ; preds = %4
  %12 = getelementptr inbounds i8, ptr %0, i64 32136
  %13 = load float, ptr %12, align 8
  %14 = fpext float %13 to double
  %15 = getelementptr inbounds i8, ptr %0, i64 32140
  %16 = load float, ptr %15, align 4
  %17 = fpext float %16 to double
  %18 = getelementptr inbounds i8, ptr %0, i64 32144
  %19 = load float, ptr %18, align 8
  %20 = fpext float %19 to double
  %21 = call i32 @gluProject(double noundef %14, double noundef %17, double noundef %20, ptr noundef %2, ptr noundef %1, ptr noundef %3, ptr noundef nonnull %5, ptr noundef nonnull %6, ptr noundef nonnull %7)
  %.not8 = icmp eq i32 %21, 0
  br i1 %.not8, label %28, label %22

22:                                               ; preds = %11
  %23 = load double, ptr %5, align 8
  %24 = fptosi double %23 to i32
  %25 = load double, ptr %6, align 8
  %26 = fadd double %25, -2.500000e+01
  %27 = fptosi double %26 to i32
  call void @_Z13imguiDrawTextiiiPKcj(i32 noundef %24, i32 noundef %27, i32 noundef 1, ptr noundef nonnull @.str.29, i32 noundef -603979776)
  br label %28

28:                                               ; preds = %22, %11, %4
  %29 = getelementptr inbounds i8, ptr %0, i64 32201
  %30 = load i8, ptr %29, align 1
  %31 = and i8 %30, 1
  %.not9 = icmp eq i8 %31, 0
  br i1 %.not9, label %49, label %32

32:                                               ; preds = %28
  %33 = getelementptr inbounds i8, ptr %0, i64 32148
  %34 = load float, ptr %33, align 4
  %35 = fpext float %34 to double
  %36 = getelementptr inbounds i8, ptr %0, i64 32152
  %37 = load float, ptr %36, align 8
  %38 = fpext float %37 to double
  %39 = getelementptr inbounds i8, ptr %0, i64 32156
  %40 = load float, ptr %39, align 4
  %41 = fpext float %40 to double
  %42 = call i32 @gluProject(double noundef %35, double noundef %38, double noundef %41, ptr noundef %2, ptr noundef %1, ptr noundef %3, ptr noundef nonnull %5, ptr noundef nonnull %6, ptr noundef nonnull %7)
  %.not10 = icmp eq i32 %42, 0
  br i1 %.not10, label %49, label %43

43:                                               ; preds = %32
  %44 = load double, ptr %5, align 8
  %45 = fptosi double %44 to i32
  %46 = load double, ptr %6, align 8
  %47 = fadd double %46, -2.500000e+01
  %48 = fptosi double %47 to i32
  call void @_Z13imguiDrawTextiiiPKcj(i32 noundef %45, i32 noundef %48, i32 noundef 1, ptr noundef nonnull @.str.30, i32 noundef -603979776)
  br label %49

49:                                               ; preds = %43, %32, %28
  %50 = getelementptr inbounds i8, ptr %3, i64 12
  %51 = load i32, ptr %50, align 4
  %52 = add nsw i32 %51, -40
  call void @_Z13imguiDrawTextiiiPKcj(i32 noundef 280, i32 noundef %52, i32 noundef 0, ptr noundef nonnull @.str.31, i32 noundef -1056964609)
  ret void
}